; Function Attrs: nofree null_pointer_is_valid sspstrong uwtable
define internal void @decode_flow_meas_value(ptr noundef %0, i16 noundef zeroext %1) #1 {
  switch i16 %1, label %7 [
    i16 0, label %3
    i16 -1, label %5
  ]

3:                                                ; preds = %2
  %4 = tail call i32 (ptr, i64, i32, i64, ptr, ...) @__snprintf_chk(ptr noundef %0, i64 noundef 240, i32 noundef 2, i64 noundef -1, ptr noundef nonnull @.str.101)
  br label %12

5:                                                ; preds = %2
  %6 = tail call i32 (ptr, i64, i32, i64, ptr, ...) @__snprintf_chk(ptr noundef %0, i64 noundef 240, i32 noundef 2, i64 noundef -1, ptr noundef nonnull @.str.102)
  br label %12

7:                                                ; preds = %2
  %8 = zext i16 %1 to i32
  %9 = uitofp i16 %1 to double
  %10 = fdiv double %9, 1.000000e+01
  %11 = tail call i32 (ptr, i64, i32, i64, ptr, ...) @__snprintf_chk(ptr noundef %0, i64 noundef 240, i32 noundef 2, i64 noundef -1, ptr noundef nonnull @.str.122, i32 noundef %8, double noundef %10)
  br label %12

12:                                               ; preds = %5, %7, %3
  ret void
}